target datalayout = "e-m:e-p270:32:32-p271:32:32-p272:64:64-i64:64-i128:128-f80:128-n8:16:32:64-S128"
target triple = "x86_64-pc-linux-gnu"

%struct.H5G_dense_bt2_name_rec_t = type { [7 x i8], i32 }

@H5G_init_g = external global i8, align 1
@H5_libterm_g = external global i8, align 1

; Function Attrs: nounwind uwtable
define internal i32 @H5G__dense_btree2_name_decode(ptr noundef %0, ptr noundef %1, ptr noundef %2) #0 {
  %4 = alloca ptr, align 8
  %5 = alloca ptr, align 8
  %6 = alloca ptr, align 8
  %7 = alloca ptr, align 8
  store ptr %0, ptr %4, align 8, !tbaa !43
  store ptr %1, ptr %5, align 8, !tbaa !3
  store ptr %2, ptr %6, align 8, !tbaa !3
  call void @llvm.lifetime.start.p0(i64 8, ptr %7) #7
  %8 = load ptr, ptr %5, align 8, !tbaa !3
  store ptr %8, ptr %7, align 8, !tbaa !9
  %9 = load i8, ptr @H5G_init_g, align 1, !tbaa !11, !range !13, !noundef !14
  %10 = trunc i8 %9 to i1
  br i1 %10, label %15, label %11

11:                                               ; preds = %3
  %12 = load i8, ptr @H5_libterm_g, align 1, !tbaa !11, !range !13, !noundef !14
  %13 = trunc i8 %12 to i1
  %14 = xor i1 %13, true
  br label %15

15:                                               ; preds = %11, %3
  %16 = phi i1 [ true, %3 ], [ %14, %11 ]
  %17 = xor i1 %16, true
  %18 = xor i1 %17, true
  %19 = zext i1 %18 to i32
  %20 = sext i32 %19 to i64
  %21 = call i64 @llvm.expect.i64(i64 %20, i64 1)
  %22 = icmp ne i64 %21, 0
  br i1 %22, label %23, label %72

23:                                               ; preds = %15
  br label %24

24:                                               ; preds = %23
  %25 = load ptr, ptr %4, align 8, !tbaa !43
  %26 = load i8, ptr %25, align 1, !tbaa !44
  %27 = zext i8 %26 to i32
  %28 = and i32 %27, 255
  %29 = load ptr, ptr %7, align 8, !tbaa !9
  %30 = getelementptr inbounds nuw %struct.H5G_dense_bt2_name_rec_t, ptr %29, i32 0, i32 1
  store i32 %28, ptr %30, align 4, !tbaa !23
  %31 = load ptr, ptr %4, align 8, !tbaa !43
  %32 = getelementptr inbounds nuw i8, ptr %31, i32 1
  store ptr %32, ptr %4, align 8, !tbaa !43
  %33 = load ptr, ptr %4, align 8, !tbaa !43
  %34 = load i8, ptr %33, align 1, !tbaa !44
  %35 = zext i8 %34 to i32
  %36 = and i32 %35, 255
  %37 = shl i32 %36, 8
  %38 = load ptr, ptr %7, align 8, !tbaa !9
  %39 = getelementptr inbounds nuw %struct.H5G_dense_bt2_name_rec_t, ptr %38, i32 0, i32 1
  %40 = load i32, ptr %39, align 4, !tbaa !23
  %41 = or i32 %40, %37
  store i32 %41, ptr %39, align 4, !tbaa !23
  %42 = load ptr, ptr %4, align 8, !tbaa !43
  %43 = getelementptr inbounds nuw i8, ptr %42, i32 1
  store ptr %43, ptr %4, align 8, !tbaa !43
  %44 = load ptr, ptr %4, align 8, !tbaa !43
  %45 = load i8, ptr %44, align 1, !tbaa !44
  %46 = zext i8 %45 to i32
  %47 = and i32 %46, 255
  %48 = shl i32 %47, 16
  %49 = load ptr, ptr %7, align 8, !tbaa !9
  %50 = getelementptr inbounds nuw %struct.H5G_dense_bt2_name_rec_t, ptr %49, i32 0, i32 1
  %51 = load i32, ptr %50, align 4, !tbaa !23
  %52 = or i32 %51, %48
  store i32 %52, ptr %50, align 4, !tbaa !23
  %53 = load ptr, ptr %4, align 8, !tbaa !43
  %54 = getelementptr inbounds nuw i8, ptr %53, i32 1
  store ptr %54, ptr %4, align 8, !tbaa !43
  %55 = load ptr, ptr %4, align 8, !tbaa !43
  %56 = load i8, ptr %55, align 1, !tbaa !44
  %57 = zext i8 %56 to i32
  %58 = and i32 %57, 255
  %59 = shl i32 %58, 24
  %60 = load ptr, ptr %7, align 8, !tbaa !9
  %61 = getelementptr inbounds nuw %struct.H5G_dense_bt2_name_rec_t, ptr %60, i32 0, i32 1
  %62 = load i32, ptr %61, align 4, !tbaa !23
  %63 = or i32 %62, %59
  store i32 %63, ptr %61, align 4, !tbaa !23
  %64 = load ptr, ptr %4, align 8, !tbaa !43
  %65 = getelementptr inbounds nuw i8, ptr %64, i32 1
  store ptr %65, ptr %4, align 8, !tbaa !43
  br label %66

66:                                               ; preds = %24
  br label %67

67:                                               ; preds = %66
  %68 = load ptr, ptr %7, align 8, !tbaa !9
  %69 = getelementptr inbounds nuw %struct.H5G_dense_bt2_name_rec_t, ptr %68, i32 0, i32 0
  %70 = getelementptr inbounds [7 x i8], ptr %69, i64 0, i64 0
  %71 = load ptr, ptr %4, align 8, !tbaa !43
  call void @llvm.memcpy.p0.p0.i64(ptr align 4 %70, ptr align 1 %71, i64 7, i1 false)
  br label %72

72:                                               ; preds = %67, %15
  call void @llvm.lifetime.end.p0(i64 8, ptr %7) #7
  ret i32 0
}