; Function Attrs: mustprogress nofree norecurse nosync nounwind willreturn memory(read, argmem: readwrite, inaccessiblemem: none) uwtable
define internal noundef i32 @H5G__dense_btree2_name_decode(ptr noundef readonly captures(none) %0, ptr noundef writeonly captures(none) %1, ptr readnone captures(none) %2) #0 {
  %4 = load i8, ptr @H5G_init_g, align 1, !tbaa !3, !range !7, !noundef !8
  %5 = trunc nuw i8 %4 to i1
  %6 = load i8, ptr @H5_libterm_g, align 1, !range !7
  %7 = trunc nuw i8 %6 to i1
  %8 = xor i1 %7, true
  %9 = select i1 %5, i1 true, i1 %8
  br i1 %9, label %10, label %30, !prof !9

10:                                               ; preds = %3
  %11 = load i8, ptr %0, align 1, !tbaa !35
  %12 = zext i8 %11 to i32
  %13 = getelementptr inbounds nuw i8, ptr %1, i64 8
  store i32 %12, ptr %13, align 4, !tbaa !19
  %14 = getelementptr inbounds nuw i8, ptr %0, i64 1
  %15 = load i8, ptr %14, align 1, !tbaa !35
  %16 = zext i8 %15 to i32
  %17 = shl nuw nsw i32 %16, 8
  %18 = or disjoint i32 %17, %12
  store i32 %18, ptr %13, align 4, !tbaa !19
  %19 = getelementptr inbounds nuw i8, ptr %0, i64 2
  %20 = load i8, ptr %19, align 1, !tbaa !35
  %21 = zext i8 %20 to i32
  %22 = shl nuw nsw i32 %21, 16
  %23 = or disjoint i32 %22, %18
  store i32 %23, ptr %13, align 4, !tbaa !19
  %24 = getelementptr inbounds nuw i8, ptr %0, i64 3
  %25 = load i8, ptr %24, align 1, !tbaa !35
  %26 = zext i8 %25 to i32
  %27 = shl nuw i32 %26, 24
  %28 = or disjoint i32 %27, %23
  store i32 %28, ptr %13, align 4, !tbaa !19
  %29 = getelementptr inbounds nuw i8, ptr %0, i64 4
  tail call void @llvm.memcpy.p0.p0.i64(ptr noundef nonnull align 4 dereferenceable(7) %1, ptr noundef nonnull align 1 dereferenceable(7) %29, i64 7, i1 false)
  br label %30

30:                                               ; preds = %10, %3
  ret i32 0
}